target datalayout = "e-m:e-p270:32:32-p271:32:32-p272:64:64-i64:64-i128:128-f80:128-n8:16:32:64-S128"
target triple = "x86_64-pc-linux-gnu"

%struct.GVC_s = type { %struct.GVCOMMON_s, ptr, i8, ptr, i32, ptr, ptr, [5 x ptr], [5 x ptr], ptr, ptr, %struct.dtdisc_s_, ptr, %struct.gvplugin_active_textlayout_s, ptr, ptr, ptr, %struct.gvplugin_active_layout_s, ptr, ptr, ptr, %struct.pointf_s, %struct.pointf_s, %struct.pointf_s, %struct.point, %struct.boxf, i32, i8, i8, i8, ptr, ptr, ptr, ptr, i32, ptr, ptr, double, ptr, %struct.color_s, i32 }
%struct.GVCOMMON_s = type { ptr, ptr, i32, i8, i8, ptr, ptr, ptr, i32, ptr, i32 }
%struct.dtdisc_s_ = type { i32, i32, i32, ptr, ptr, ptr }
%struct.gvplugin_active_textlayout_s = type { ptr, i32, ptr }
%struct.gvplugin_active_layout_s = type { ptr, i32, ptr, ptr }
%struct.pointf_s = type { double, double }
%struct.point = type { i32, i32 }
%struct.boxf = type { %struct.pointf_s, %struct.pointf_s }
%struct.color_s = type { %union.anon, i32 }
%union.anon = type { [4 x double] }
%struct.GVG_s = type { ptr, ptr, ptr, i32, ptr }

@stderr = external global ptr, align 8
@P_graph = internal global ptr null, align 8
@.str = private unnamed_addr constant [11 x i8] c"<internal>\00", align 1
@.str.134 = private unnamed_addr constant [58 x i8] c"integer overflow when trying to allocate %zu * %zu bytes\0A\00", align 1
@.str.135 = private unnamed_addr constant [49 x i8] c"out of memory when trying to allocate %zu bytes\0A\00", align 1

; Function Attrs: inlinehint nounwind uwtable
define internal ptr @gv_calloc(i64 noundef %0, i64 noundef %1) #5 {
  %3 = alloca i64, align 8
  %4 = alloca i64, align 8
  %5 = alloca ptr, align 8
  store i64 %0, ptr %3, align 8, !tbaa !52
  store i64 %1, ptr %4, align 8, !tbaa !52
  %6 = load i64, ptr %3, align 8, !tbaa !52
  %7 = icmp ugt i64 %6, 0
  br i1 %7, label %8, label %18

8:                                                ; preds = %2
  %9 = load i64, ptr %3, align 8, !tbaa !52
  %10 = udiv i64 -1, %9
  %11 = load i64, ptr %4, align 8, !tbaa !52
  %12 = icmp ult i64 %10, %11
  br i1 %12, label %13, label %18

13:                                               ; preds = %8
  %14 = load ptr, ptr @stderr, align 8, !tbaa !10
  %15 = load i64, ptr %3, align 8, !tbaa !52
  %16 = load i64, ptr %4, align 8, !tbaa !52
  %17 = call i32 (ptr, ptr, ...) @fprintf(ptr noundef %14, ptr noundef @.str.134, i64 noundef %15, i64 noundef %16) #16
  call void @graphviz_exit(i32 noundef 1) #17
  unreachable

18:                                               ; preds = %8, %2
  call void @llvm.lifetime.start.p0(i64 8, ptr %5) #16
  %19 = load i64, ptr %3, align 8, !tbaa !52
  %20 = load i64, ptr %4, align 8, !tbaa !52
  %21 = call noalias ptr @calloc(i64 noundef %19, i64 noundef %20) #20
  store ptr %21, ptr %5, align 8, !tbaa !78
  %22 = load i64, ptr %3, align 8, !tbaa !52
  %23 = icmp ugt i64 %22, 0
  br i1 %23, label %24, label %36

24:                                               ; preds = %18
  %25 = load i64, ptr %4, align 8, !tbaa !52
  %26 = icmp ugt i64 %25, 0
  br i1 %26, label %27, label %36

27:                                               ; preds = %24
  %28 = load ptr, ptr %5, align 8, !tbaa !78
  %29 = icmp eq ptr %28, null
  br i1 %29, label %30, label %36

30:                                               ; preds = %27
  %31 = load ptr, ptr @stderr, align 8, !tbaa !10
  %32 = load i64, ptr %3, align 8, !tbaa !52
  %33 = load i64, ptr %4, align 8, !tbaa !52
  %34 = mul i64 %32, %33
  %35 = call i32 (ptr, ptr, ...) @fprintf(ptr noundef %31, ptr noundef @.str.135, i64 noundef %34) #16
  call void @graphviz_exit(i32 noundef 1) #17
  unreachable

36:                                               ; preds = %27, %24, %18
  %37 = load ptr, ptr %5, align 8, !tbaa !78
  call void @llvm.lifetime.end.p0(i64 8, ptr %5) #16
  ret ptr %37
}

; Function Attrs: inlinehint nounwind uwtable
define internal ptr @gv_alloc(i64 noundef %0) #5 {
  %2 = alloca i64, align 8
  store i64 %0, ptr %2, align 8, !tbaa !52
  %3 = load i64, ptr %2, align 8, !tbaa !52
  %4 = call ptr @gv_calloc(i64 noundef 1, i64 noundef %3)
  ret ptr %4
}

; Function Attrs: nounwind uwtable
define internal i32 @gvg_init(ptr noundef %0, ptr noundef %1, ptr noundef %2, i32 noundef %3) #0 {
  %5 = alloca ptr, align 8
  %6 = alloca ptr, align 8
  %7 = alloca ptr, align 8
  %8 = alloca i32, align 4
  %9 = alloca ptr, align 8
  store ptr %0, ptr %5, align 8, !tbaa !12
  store ptr %1, ptr %6, align 8, !tbaa !14
  store ptr %2, ptr %7, align 8, !tbaa !3
  store i32 %3, ptr %8, align 4, !tbaa !8
  call void @llvm.lifetime.start.p0(i64 8, ptr %9) #16
  %10 = call ptr @gv_alloc(i64 noundef 40)
  store ptr %10, ptr %9, align 8, !tbaa !16
  %11 = load ptr, ptr %5, align 8, !tbaa !12
  %12 = getelementptr inbounds nuw %struct.GVC_s, ptr %11, i32 0, i32 5
  %13 = load ptr, ptr %12, align 8, !tbaa !18
  %14 = icmp ne ptr %13, null
  br i1 %14, label %19, label %15

15:                                               ; preds = %4
  %16 = load ptr, ptr %9, align 8, !tbaa !16
  %17 = load ptr, ptr %5, align 8, !tbaa !12
  %18 = getelementptr inbounds nuw %struct.GVC_s, ptr %17, i32 0, i32 5
  store ptr %16, ptr %18, align 8, !tbaa !18
  br label %25

19:                                               ; preds = %4
  %20 = load ptr, ptr %9, align 8, !tbaa !16
  %21 = load ptr, ptr %5, align 8, !tbaa !12
  %22 = getelementptr inbounds nuw %struct.GVC_s, ptr %21, i32 0, i32 6
  %23 = load ptr, ptr %22, align 8, !tbaa !37
  %24 = getelementptr inbounds nuw %struct.GVG_s, ptr %23, i32 0, i32 1
  store ptr %20, ptr %24, align 8, !tbaa !38
  br label %25

25:                                               ; preds = %19, %15
  %26 = load ptr, ptr %9, align 8, !tbaa !16
  %27 = load ptr, ptr %5, align 8, !tbaa !12
  %28 = getelementptr inbounds nuw %struct.GVC_s, ptr %27, i32 0, i32 6
  store ptr %26, ptr %28, align 8, !tbaa !37
  %29 = load ptr, ptr %5, align 8, !tbaa !12
  %30 = load ptr, ptr %9, align 8, !tbaa !16
  %31 = getelementptr inbounds nuw %struct.GVG_s, ptr %30, i32 0, i32 0
  store ptr %29, ptr %31, align 8, !tbaa !40
  %32 = load ptr, ptr %6, align 8, !tbaa !14
  %33 = load ptr, ptr %9, align 8, !tbaa !16
  %34 = getelementptr inbounds nuw %struct.GVG_s, ptr %33, i32 0, i32 4
  store ptr %32, ptr %34, align 8, !tbaa !41
  %35 = load ptr, ptr %7, align 8, !tbaa !3
  %36 = load ptr, ptr %9, align 8, !tbaa !16
  %37 = getelementptr inbounds nuw %struct.GVG_s, ptr %36, i32 0, i32 2
  store ptr %35, ptr %37, align 8, !tbaa !42
  %38 = load i32, ptr %8, align 4, !tbaa !8
  %39 = load ptr, ptr %9, align 8, !tbaa !16
  %40 = getelementptr inbounds nuw %struct.GVG_s, ptr %39, i32 0, i32 3
  store i32 %38, ptr %40, align 8, !tbaa !43
  call void @llvm.lifetime.end.p0(i64 8, ptr %9) #16
  ret i32 0
}

; Function Attrs: nounwind uwtable
define ptr @gvPluginsGraph(ptr noundef %0) #0 {
  %2 = alloca ptr, align 8
  store ptr %0, ptr %2, align 8, !tbaa !12
  %3 = load ptr, ptr %2, align 8, !tbaa !12
  %4 = load ptr, ptr @P_graph, align 8, !tbaa !14
  %5 = call i32 @gvg_init(ptr noundef %3, ptr noundef %4, ptr noundef @.str, i32 noundef 0)
  %6 = load ptr, ptr @P_graph, align 8, !tbaa !14
  ret ptr %6
}