; Function Attrs: nofree nounwind uwtable
define ptr @gvPluginsGraph(ptr noundef %0) local_unnamed_addr #0 {
  %2 = load ptr, ptr @P_graph, align 8, !tbaa !7
  %3 = tail call noalias dereferenceable_or_null(40) ptr @calloc(i64 noundef 1, i64 noundef range(i64 1, 105) 40) #27
  %4 = icmp eq ptr %3, null
  br i1 %4, label %5, label %gv_alloc.exit.i

5:                                                ; preds = %1
  %6 = load ptr, ptr @stderr, align 8, !tbaa !10
  %7 = tail call i32 (ptr, ptr, ...) @fprintf(ptr noundef %6, ptr noundef nonnull @.str.135, i64 noundef 40) #28
  tail call fastcc void @graphviz_exit(i32 noundef 1) #25
  unreachable

gv_alloc.exit.i:                                  ; preds = %1
  %8 = getelementptr inbounds nuw i8, ptr %0, i64 104
  %9 = load ptr, ptr %8, align 8, !tbaa !12
  %.not.i = icmp eq ptr %9, null
  br i1 %.not.i, label %10, label %11

10:                                               ; preds = %gv_alloc.exit.i
  store ptr %3, ptr %8, align 8, !tbaa !12
  br label %gvg_init.exit

11:                                               ; preds = %gv_alloc.exit.i
  %12 = getelementptr inbounds nuw i8, ptr %0, i64 112
  %13 = load ptr, ptr %12, align 8, !tbaa !33
  %14 = getelementptr inbounds nuw i8, ptr %13, i64 8
  store ptr %3, ptr %14, align 8, !tbaa !34
  br label %gvg_init.exit

gvg_init.exit:                                    ; preds = %10, %11
  %15 = getelementptr inbounds nuw i8, ptr %0, i64 112
  store ptr %3, ptr %15, align 8, !tbaa !33
  store ptr %0, ptr %3, align 8, !tbaa !37
  %16 = getelementptr inbounds nuw i8, ptr %3, i64 32
  store ptr %2, ptr %16, align 8, !tbaa !38
  %17 = getelementptr inbounds nuw i8, ptr %3, i64 16
  store ptr @.str, ptr %17, align 8, !tbaa !39
  ret ptr %2
}